; Function Attrs: nounwind sspstrong uwtable
define internal i64 @ossl_ec_group_get_curve_name(i64 noundef %0) #0 {
  %2 = tail call ptr @rb_check_typeddata(i64 noundef %0, ptr noundef nonnull @ossl_ec_group_type) #7
  %3 = icmp eq ptr %2, null
  br i1 %3, label %4, label %6

4:                                                ; preds = %1
  %5 = load i64, ptr @eEC_GROUP, align 8, !tbaa !6
  tail call void (i64, ptr, ...) @ossl_raise(i64 noundef %5, ptr noundef nonnull @.str.59) #9
  unreachable

6:                                                ; preds = %1
  %7 = tail call i32 @EC_GROUP_get_curve_name(ptr noundef nonnull %2) #7
  %8 = tail call ptr @OBJ_nid2sn(i32 noundef %7) #7
  %9 = tail call i64 @rb_str_new_cstr(ptr noundef %8) #7
  ret i64 %9
}